target datalayout = "e-m:e-p270:32:32-p271:32:32-p272:64:64-i64:64-i128:128-f80:128-n8:16:32:64-S128"
target triple = "x86_64-pc-linux-gnu"

%struct.AVChannelLayout = type { i32, i32, %union.anon.1, ptr }
%union.anon.1 = type { i64 }
%struct.AVFilterContext = type { ptr, ptr, ptr, ptr, ptr, i32, ptr, ptr, i32, ptr, ptr, i32, i32, ptr, ptr, ptr, ptr, i32, ptr, i32, i32 }
%struct.StereoToolsContext = type { ptr, i32, i32, i32, i32, i32, i32, i32, i32, double, double, double, double, double, double, double, double, double, double, double, double, double, double, double, ptr, i32, i32 }
%struct.AVFilterLink = type { ptr, ptr, ptr, ptr, i32, i32, i32, i32, %struct.AVRational, i32, i32, i32, %struct.AVChannelLayout, %struct.AVRational, ptr, i32, %struct.AVFilterFormatsConfig, %struct.AVFilterFormatsConfig }
%struct.AVRational = type { i32, i32 }
%struct.AVFilterFormatsConfig = type { ptr, ptr, ptr, ptr, ptr }

; Function Attrs: nounwind uwtable
define internal i32 @config_input(ptr noundef %0) #1 {
  %2 = alloca i32, align 4
  %3 = alloca ptr, align 8
  %4 = alloca ptr, align 8
  %5 = alloca ptr, align 8
  %6 = alloca i32, align 4
  store ptr %0, ptr %3, align 8, !tbaa !29
  call void @llvm.lifetime.start.p0(i64 8, ptr %4) #5
  %7 = load ptr, ptr %3, align 8, !tbaa !29
  %8 = getelementptr inbounds nuw %struct.AVFilterLink, ptr %7, i32 0, i32 2
  %9 = load ptr, ptr %8, align 8, !tbaa !33
  store ptr %9, ptr %4, align 8, !tbaa !4
  call void @llvm.lifetime.start.p0(i64 8, ptr %5) #5
  %10 = load ptr, ptr %4, align 8, !tbaa !4
  %11 = getelementptr inbounds nuw %struct.AVFilterContext, ptr %10, i32 0, i32 9
  %12 = load ptr, ptr %11, align 8, !tbaa !9
  store ptr %12, ptr %5, align 8, !tbaa !22
  %13 = load ptr, ptr %3, align 8, !tbaa !29
  %14 = getelementptr inbounds nuw %struct.AVFilterLink, ptr %13, i32 0, i32 11
  %15 = load i32, ptr %14, align 8, !tbaa !63
  %16 = add nsw i32 %15, 9
  %17 = sdiv i32 %16, 10
  %18 = add nsw i32 %17, 2
  %19 = sub nsw i32 %18, 1
  %20 = and i32 %19, -2
  %21 = load ptr, ptr %5, align 8, !tbaa !22
  %22 = getelementptr inbounds nuw %struct.StereoToolsContext, ptr %21, i32 0, i32 25
  store i32 %20, ptr %22, align 8, !tbaa !57
  %23 = load ptr, ptr %5, align 8, !tbaa !22
  %24 = getelementptr inbounds nuw %struct.StereoToolsContext, ptr %23, i32 0, i32 24
  %25 = load ptr, ptr %24, align 8, !tbaa !62
  %26 = icmp ne ptr %25, null
  br i1 %26, label %35, label %27

27:                                               ; preds = %1
  %28 = load ptr, ptr %5, align 8, !tbaa !22
  %29 = getelementptr inbounds nuw %struct.StereoToolsContext, ptr %28, i32 0, i32 25
  %30 = load i32, ptr %29, align 8, !tbaa !57
  %31 = sext i32 %30 to i64
  %32 = call noalias ptr @av_calloc(i64 noundef %31, i64 noundef 8)
  %33 = load ptr, ptr %5, align 8, !tbaa !22
  %34 = getelementptr inbounds nuw %struct.StereoToolsContext, ptr %33, i32 0, i32 24
  store ptr %32, ptr %34, align 8, !tbaa !62
  br label %35

35:                                               ; preds = %27, %1
  %36 = load ptr, ptr %5, align 8, !tbaa !22
  %37 = getelementptr inbounds nuw %struct.StereoToolsContext, ptr %36, i32 0, i32 24
  %38 = load ptr, ptr %37, align 8, !tbaa !62
  %39 = icmp ne ptr %38, null
  br i1 %39, label %41, label %40

40:                                               ; preds = %35
  store i32 -12, ptr %2, align 4
  store i32 1, ptr %6, align 4
  br label %65

41:                                               ; preds = %35
  %42 = load ptr, ptr %5, align 8, !tbaa !22
  %43 = getelementptr inbounds nuw %struct.StereoToolsContext, ptr %42, i32 0, i32 20
  %44 = load double, ptr %43, align 8, !tbaa !55
  %45 = call nsz double @llvm.atan.f64(double %44)
  %46 = fdiv nsz double 1.000000e+00, %45
  %47 = load ptr, ptr %5, align 8, !tbaa !22
  %48 = getelementptr inbounds nuw %struct.StereoToolsContext, ptr %47, i32 0, i32 21
  store double %46, ptr %48, align 8, !tbaa !72
  %49 = load ptr, ptr %5, align 8, !tbaa !22
  %50 = getelementptr inbounds nuw %struct.StereoToolsContext, ptr %49, i32 0, i32 13
  %51 = load double, ptr %50, align 8, !tbaa !81
  %52 = fdiv nsz double %51, 1.800000e+02
  %53 = fmul nsz double %52, 0x400921FB54442D18
  %54 = call nsz double @llvm.cos.f64(double %53)
  %55 = load ptr, ptr %5, align 8, !tbaa !22
  %56 = getelementptr inbounds nuw %struct.StereoToolsContext, ptr %55, i32 0, i32 19
  store double %54, ptr %56, align 8, !tbaa !75
  %57 = load ptr, ptr %5, align 8, !tbaa !22
  %58 = getelementptr inbounds nuw %struct.StereoToolsContext, ptr %57, i32 0, i32 13
  %59 = load double, ptr %58, align 8, !tbaa !81
  %60 = fdiv nsz double %59, 1.800000e+02
  %61 = fmul nsz double %60, 0x400921FB54442D18
  %62 = call nsz double @llvm.sin.f64(double %61)
  %63 = load ptr, ptr %5, align 8, !tbaa !22
  %64 = getelementptr inbounds nuw %struct.StereoToolsContext, ptr %63, i32 0, i32 18
  store double %62, ptr %64, align 8, !tbaa !76
  store i32 0, ptr %2, align 4
  store i32 1, ptr %6, align 4
  br label %65

65:                                               ; preds = %41, %40
  call void @llvm.lifetime.end.p0(i64 8, ptr %5) #5
  call void @llvm.lifetime.end.p0(i64 8, ptr %4) #5
  %66 = load i32, ptr %2, align 4
  ret i32 %66
}