; Function Attrs: nounwind uwtable
define internal range(i32 -12, 1) i32 @config_input(ptr noundef readonly captures(none) %0) #1 {
  %2 = getelementptr inbounds nuw i8, ptr %0, i64 16
  %3 = load ptr, ptr %2, align 8, !tbaa !23
  %4 = getelementptr inbounds nuw i8, ptr %3, i64 72
  %5 = load ptr, ptr %4, align 8, !tbaa !4
  %6 = getelementptr inbounds nuw i8, ptr %0, i64 64
  %7 = load i32, ptr %6, align 8, !tbaa !32
  %8 = add nsw i32 %7, 9
  %9 = sdiv i32 %8, 10
  %10 = add nsw i32 %9, 1
  %11 = and i32 %10, -2
  %12 = getelementptr inbounds nuw i8, ptr %5, i64 168
  store i32 %11, ptr %12, align 8, !tbaa !33
  %13 = getelementptr inbounds nuw i8, ptr %5, i64 160
  %14 = load ptr, ptr %13, align 8, !tbaa !36
  %.not = icmp eq ptr %14, null
  br i1 %.not, label %15, label %.thread

15:                                               ; preds = %1
  %16 = sext i32 %11 to i64
  %17 = tail call noalias ptr @av_calloc(i64 noundef %16, i64 noundef 8) #5
  store ptr %17, ptr %13, align 8, !tbaa !36
  %.not14 = icmp eq ptr %17, null
  br i1 %.not14, label %31, label %.thread

.thread:                                          ; preds = %1, %15
  %18 = getelementptr inbounds nuw i8, ptr %5, i64 128
  %19 = load double, ptr %18, align 8, !tbaa !37
  %20 = tail call nsz double @llvm.atan.f64(double %19)
  %21 = fdiv nsz double 1.000000e+00, %20
  %22 = getelementptr inbounds nuw i8, ptr %5, i64 136
  store double %21, ptr %22, align 8, !tbaa !38
  %23 = getelementptr inbounds nuw i8, ptr %5, i64 72
  %24 = load double, ptr %23, align 8, !tbaa !39
  %25 = fdiv nsz double %24, 1.800000e+02
  %26 = fmul nsz double %25, 0x400921FB54442D18
  %27 = tail call nsz double @llvm.cos.f64(double %26)
  %28 = getelementptr inbounds nuw i8, ptr %5, i64 120
  store double %27, ptr %28, align 8, !tbaa !40
  %29 = tail call nsz double @llvm.sin.f64(double %26)
  %30 = getelementptr inbounds nuw i8, ptr %5, i64 112
  store double %29, ptr %30, align 8, !tbaa !41
  br label %31

31:                                               ; preds = %15, %.thread
  %.0 = phi i32 [ 0, %.thread ], [ -12, %15 ]
  ret i32 %.0
}